(dp1
S'url'
p2
(dp3
S'length'
p4
I32768
sS'unique'
p5
I01
sS'sortable'
p6
I2
sS'sql'
p7
S'TEXT UNIQUE'
p8
sS'notnull'
p9
I00
sS'type'
p10
S'text'
p11
ssS'grade'
p12
(dp13
g4
I512
sg5
I00
sg6
I3
sg7
S'CHAR(512)'
p14
sg9
I00
sg10
S'string'
p15
ssS'lastscan'
p16
(dp17
g4
I512
sg5
I00
sg6
I4
sg7
S'TIMESTAMP'
p18
sg9
I00
sg10
S'datetime'
p19
ssS'id'
p20
(dp21
g4
I512
sg5
I00
sg6
I1
sg7
S'INTEGER PRIMARY KEY AUTOINCREMENT'
p22
sg9
I00
sg10
g20
ss.