(dp1
S'output'
p2
S"<type 'exceptions.Exception'> Server address not specified"
p3
sS'layer'
p4
S'/home/hpiard/PycharmProjects/OXaaS_ssllabs/web2py/applications/ssllabs/controllers/default.py'
p5
sS'code'
p6
S'# -*- coding: utf-8 -*-\n# this file is released under public domain and you can use without limitations\n\n# -------------------------------------------------------------------------\n# This is a sample controller\n# - index is the default action of any application\n# - user is required for authentication and authorization\n# - download is for downloading files uploaded in the db (does streaming)\n# -------------------------------------------------------------------------\n\n@auth.requires_login()\ndef index():\n    """\n    example action using the internationalization operator T and flash\n    rendered by views/default/index.html or views/generic.html\n\n    if you need a simple wiki simply replace the two lines below with:\n    return auth.wiki()\n    """\n    response.flash = T("Welcome to Open-Xchange\'s SSL Lab")\n    return dict(message=T(\'Welcome to web2py!\'))\n\n\ndef user():\n    """\n    exposes:\n    http://..../[app]/default/user/login\n    http://..../[app]/default/user/logout\n    http://..../[app]/default/user/register\n    http://..../[app]/default/user/profile\n    http://..../[app]/default/user/retrieve_password\n    http://..../[app]/default/user/change_password\n    http://..../[app]/default/user/bulk_register\n    use @auth.requires_login()\n        @auth.requires_membership(\'group name\')\n        @auth.requires_permission(\'read\',\'table name\',record_id)\n    to decorate functions that need access control\n    also notice there is http://..../[app]/appadmin/manage/auth to allow administrator to manage users\n    """\n    return dict(form=auth())\n\n\n@cache.action()\ndef download():\n    """\n    allows downloading of uploaded files\n    http://..../[app]/default/download/[filename]\n    """\n    return response.download(request, db)\n\n\ndef call():\n    """\n    exposes services. for example:\n    http://..../[app]/default/call/jsonrpc\n    decorate with @services.jsonrpc the functions to expose\n    supports xml, json, xmlrpc, jsonrpc, amfrpc, rss, csv\n    """\n    return service()\n\n\n\nresponse._vars=response._caller(user)\n'
p7
sS'snapshot'
p8
(dp9
sS'traceback'
p10
S'Traceback (most recent call last):\n  File "/home/hpiard/PycharmProjects/OXaaS_ssllabs/web2py/gluon/restricted.py", line 227, in restricted\n    exec ccode in environment\n  File "/home/hpiard/PycharmProjects/OXaaS_ssllabs/web2py/applications/ssllabs/controllers/default.py", line 63, in <module>\n  File "/home/hpiard/PycharmProjects/OXaaS_ssllabs/web2py/gluon/globals.py", line 417, in <lambda>\n    self._caller = lambda f: f()\n  File "/home/hpiard/PycharmProjects/OXaaS_ssllabs/web2py/applications/ssllabs/controllers/default.py", line 40, in user\n    return dict(form=auth())\n  File "/home/hpiard/PycharmProjects/OXaaS_ssllabs/web2py/gluon/tools.py", line 1941, in __call__\n    return getattr(self, args[0])()\n  File "/home/hpiard/PycharmProjects/OXaaS_ssllabs/web2py/gluon/tools.py", line 3874, in request_reset_password\n    if self.email_reset_password(user):\n  File "/home/hpiard/PycharmProjects/OXaaS_ssllabs/web2py/gluon/tools.py", line 3898, in email_reset_password\n    message=self.messages.reset_password % d):\n  File "/home/hpiard/PycharmProjects/OXaaS_ssllabs/web2py/gluon/tools.py", line 430, in send\n    raise Exception(\'Server address not specified\')\nException: Server address not specified\n'
p11
s.