(dp1
S'output'
p2
S"<type 'exceptions.TypeError'> cannot concatenate 'str' and 'int' objects"
p3
sS'layer'
p4
S'/home/hpiard/PycharmProjects/OXaaS_ssllabs/web2py/applications/ssllabs/controllers/tools.py'
p5
sS'code'
p6
S'@auth.requires_login()\ndef certhealth():\n    ip_addresses = db().select(db.us_ips.ALL, orderby=db.us_ips.ip_address)\n    return dict(ip_adresses=ip_addresses)\n\n\n@auth.requires_login()\ndef checkports():\n    import ast\n    import os\n    db_request = db.us_ips(request.args(0, cast=int, otherwise=URL(\'error\'))) or redirect(URL(\'ssllabs\', \'index\'))\n    ports =  db_request[\'open_port\']\n    ports_as_list = ast.literal_eval(ports)\n    print ports_as_list\n    if 443 in ports_as_list:\n        grade = os.system(request.folder + \'private/ssllabs-scan-stable/ssllabs-scan --grade True \' + \\\n                              db_request[\'ip_address\'])\n        print "The grade of " + str(db_request[\'ip_address\']) + "SSL certificate is: " + grade\n\n    return dict(message=grade)\n\n\n@auth.requires_login()\ndef ping():\n    welcome_message_ping = "Welcome to the PING Tool!"\n    return dict(message=welcome_message_ping)\n\n\n@auth.requires_login()\ndef traceroute():\n    welcome_message_traceroute = "Welcome to the TRACEROUTE Tool!"\n    return dict(message=welcome_message_traceroute)\n\n\n@auth.requires_login()\ndef whois():\n    welcome_message_whois = "Welcome to the WHOIS Tool!"\n    return dict(message=welcome_message_whois)\n\n\ndef error():\n    error_message = "Ooooops, I am sorry....something went terribly wrong.....please try again."\n    return dict(message=error_message)\nresponse._vars=response._caller(checkports)\n'
p7
sS'snapshot'
p8
(dp9
sS'traceback'
p10
S'Traceback (most recent call last):\n  File "/home/hpiard/PycharmProjects/OXaaS_ssllabs/web2py/gluon/restricted.py", line 227, in restricted\n    exec ccode in environment\n  File "/home/hpiard/PycharmProjects/OXaaS_ssllabs/web2py/applications/ssllabs/controllers/tools.py", line 44, in <module>\n  File "/home/hpiard/PycharmProjects/OXaaS_ssllabs/web2py/gluon/globals.py", line 417, in <lambda>\n    self._caller = lambda f: f()\n  File "/home/hpiard/PycharmProjects/OXaaS_ssllabs/web2py/gluon/tools.py", line 4241, in f\n    return action(*a, **b)\n  File "/home/hpiard/PycharmProjects/OXaaS_ssllabs/web2py/applications/ssllabs/controllers/tools.py", line 18, in checkports\n    print "The grade of " + str(db_request[\'ip_address\']) + "SSL certificate is: " + grade\nTypeError: cannot concatenate \'str\' and \'int\' objects\n'
p11
s.